target datalayout = "e-m:e-p270:32:32-p271:32:32-p272:64:64-i64:64-i128:128-f80:128-n8:16:32:64-S128"
target triple = "x86_64-unknown-linux-gnu"

%"class.std::__cxx11::basic_string" = type { %"struct.std::__cxx11::basic_string<char>::_Alloc_hider", i64, %union.anon }
%"struct.std::__cxx11::basic_string<char>::_Alloc_hider" = type { ptr }
%union.anon = type { i64, [8 x i8] }

@.str.13 = private unnamed_addr constant [3 x i8] c"\22.\00", align 1
@.str.37 = private unnamed_addr constant [52 x i8] c"Unexpected end of file while trying to read a float\00", align 1
@.str.38 = private unnamed_addr constant [46 x i8] c"Expected a floating point number, but found \22\00", align 1

; Function Attrs: mustprogress uwtable
define hidden noundef float @_ZN6Assimp9BVHLoader19GetNextTokenAsFloatEv(ptr noundef nonnull align 8 dereferenceable(177) %this) #4 align 2 personality ptr @__gxx_personality_v0 {
entry:
  %this.addr = alloca ptr, align 8
  %token = alloca %"class.std::__cxx11::basic_string", align 8
  %exn.slot = alloca ptr, align 8
  %ehselector.slot = alloca i32, align 4
  %ctoken = alloca ptr, align 8
  %result = alloca float, align 4
  store ptr %this, ptr %this.addr, align 8
  %this1 = load ptr, ptr %this.addr, align 8
  call void @_ZN6Assimp9BVHLoader12GetNextTokenB5cxx11Ev(ptr sret(%"class.std::__cxx11::basic_string") align 8 %token, ptr noundef nonnull align 8 dereferenceable(177) %this1)
  %call = call noundef zeroext i1 @_ZNKSt7__cxx1112basic_stringIcSt11char_traitsIcESaIcEE5emptyEv(ptr noundef nonnull align 8 dereferenceable(32) %token) #15
  br i1 %call, label %if.then, label %if.end

if.then:                                          ; preds = %entry
  invoke void @_ZN6Assimp9BVHLoader14ThrowExceptionIJRA52_KcEEEvDpOT_(ptr noundef nonnull align 8 dereferenceable(177) %this1, ptr noundef nonnull align 1 dereferenceable(52) @.str.37) #17
          to label %invoke.cont unwind label %lpad

invoke.cont:                                      ; preds = %if.then
  unreachable

lpad:                                             ; preds = %if.then7, %if.end, %if.then
  %0 = landingpad { ptr, i32 }
          cleanup
  %1 = extractvalue { ptr, i32 } %0, 0
  store ptr %1, ptr %exn.slot, align 8
  %2 = extractvalue { ptr, i32 } %0, 1
  store i32 %2, ptr %ehselector.slot, align 4
  call void @_ZNSt7__cxx1112basic_stringIcSt11char_traitsIcESaIcEED1Ev(ptr noundef nonnull align 8 dereferenceable(32) %token) #15
  br label %eh.resume

if.end:                                           ; preds = %entry
  %call2 = call noundef ptr @_ZNKSt7__cxx1112basic_stringIcSt11char_traitsIcESaIcEE5c_strEv(ptr noundef nonnull align 8 dereferenceable(32) %token) #15
  store ptr %call2, ptr %ctoken, align 8
  store float 0.000000e+00, ptr %result, align 4
  %3 = load ptr, ptr %ctoken, align 8
  %call4 = invoke noundef ptr @_ZN6Assimp17fast_atoreal_moveIf17DeadlyImportErrorEEPKcS3_RT_b(ptr noundef %3, ptr noundef nonnull align 4 dereferenceable(4) %result, i1 noundef zeroext true)
          to label %invoke.cont3 unwind label %lpad

invoke.cont3:                                     ; preds = %if.end
  store ptr %call4, ptr %ctoken, align 8
  %4 = load ptr, ptr %ctoken, align 8
  %call5 = call noundef ptr @_ZNKSt7__cxx1112basic_stringIcSt11char_traitsIcESaIcEE5c_strEv(ptr noundef nonnull align 8 dereferenceable(32) %token) #15
  %call6 = call noundef i64 @_ZNKSt7__cxx1112basic_stringIcSt11char_traitsIcESaIcEE6lengthEv(ptr noundef nonnull align 8 dereferenceable(32) %token) #15
  %add.ptr = getelementptr inbounds i8, ptr %call5, i64 %call6
  %cmp = icmp ne ptr %4, %add.ptr
  br i1 %cmp, label %if.then7, label %if.end9

if.then7:                                         ; preds = %invoke.cont3
  invoke void @_ZN6Assimp9BVHLoader14ThrowExceptionIJRA46_KcRNSt7__cxx1112basic_stringIcSt11char_traitsIcESaIcEEERA3_S2_EEEvDpOT_(ptr noundef nonnull align 8 dereferenceable(177) %this1, ptr noundef nonnull align 1 dereferenceable(46) @.str.38, ptr noundef nonnull align 8 dereferenceable(32) %token, ptr noundef nonnull align 1 dereferenceable(3) @.str.13) #17
          to label %invoke.cont8 unwind label %lpad

invoke.cont8:                                     ; preds = %if.then7
  unreachable

if.end9:                                          ; preds = %invoke.cont3
  %5 = load float, ptr %result, align 4
  call void @_ZNSt7__cxx1112basic_stringIcSt11char_traitsIcESaIcEED1Ev(ptr noundef nonnull align 8 dereferenceable(32) %token) #15
  ret float %5

eh.resume:                                        ; preds = %lpad
  %exn = load ptr, ptr %exn.slot, align 8
  %sel = load i32, ptr %ehselector.slot, align 4
  %lpad.val = insertvalue { ptr, i32 } poison, ptr %exn, 0
  %lpad.val10 = insertvalue { ptr, i32 } %lpad.val, i32 %sel, 1
  resume { ptr, i32 } %lpad.val10
}