; Function Attrs: mustprogress uwtable
define hidden noundef float @_ZN6Assimp9BVHLoader19GetNextTokenAsFloatEv(ptr noundef nonnull align 8 dereferenceable(177) %this) local_unnamed_addr #3 align 2 personality ptr @__gxx_personality_v0 {
entry:
  %token = alloca %"class.std::__cxx11::basic_string", align 8
  %result = alloca float, align 4
  call void @_ZN6Assimp9BVHLoader12GetNextTokenB5cxx11Ev(ptr nonnull sret(%"class.std::__cxx11::basic_string") align 8 %token, ptr noundef nonnull align 8 dereferenceable(177) %this)
  %call = call noundef zeroext i1 @_ZNKSt7__cxx1112basic_stringIcSt11char_traitsIcESaIcEE5emptyEv(ptr noundef nonnull align 8 dereferenceable(32) %token) #20
  br i1 %call, label %if.then, label %if.end

if.then:                                          ; preds = %entry
  invoke void @_ZN6Assimp9BVHLoader14ThrowExceptionIJRA52_KcEEEvDpOT_(ptr noundef nonnull align 8 dereferenceable(177) %this, ptr noundef nonnull align 1 dereferenceable(52) @.str.37) #22
          to label %invoke.cont unwind label %lpad

invoke.cont:                                      ; preds = %if.then
  unreachable

lpad:                                             ; preds = %if.then7, %if.end, %if.then
  %0 = landingpad { ptr, i32 }
          cleanup
  call void @_ZNSt7__cxx1112basic_stringIcSt11char_traitsIcESaIcEED1Ev(ptr noundef nonnull align 8 dereferenceable(32) %token) #20
  resume { ptr, i32 } %0

if.end:                                           ; preds = %entry
  %call2 = call noundef ptr @_ZNKSt7__cxx1112basic_stringIcSt11char_traitsIcESaIcEE5c_strEv(ptr noundef nonnull align 8 dereferenceable(32) %token) #20
  store float 0.000000e+00, ptr %result, align 4
  %call4 = invoke noundef ptr @_ZN6Assimp17fast_atoreal_moveIf17DeadlyImportErrorEEPKcS3_RT_b(ptr noundef %call2, ptr noundef nonnull align 4 dereferenceable(4) %result, i1 noundef zeroext true)
          to label %invoke.cont3 unwind label %lpad

invoke.cont3:                                     ; preds = %if.end
  %call5 = call noundef ptr @_ZNKSt7__cxx1112basic_stringIcSt11char_traitsIcESaIcEE5c_strEv(ptr noundef nonnull align 8 dereferenceable(32) %token) #20
  %call6 = call noundef i64 @_ZNKSt7__cxx1112basic_stringIcSt11char_traitsIcESaIcEE6lengthEv(ptr noundef nonnull align 8 dereferenceable(32) %token) #20
  %add.ptr = getelementptr inbounds i8, ptr %call5, i64 %call6
  %cmp.not = icmp eq ptr %call4, %add.ptr
  br i1 %cmp.not, label %if.end9, label %if.then7

if.then7:                                         ; preds = %invoke.cont3
  invoke void @_ZN6Assimp9BVHLoader14ThrowExceptionIJRA46_KcRNSt7__cxx1112basic_stringIcSt11char_traitsIcESaIcEEERA3_S2_EEEvDpOT_(ptr noundef nonnull align 8 dereferenceable(177) %this, ptr noundef nonnull align 1 dereferenceable(46) @.str.38, ptr noundef nonnull align 8 dereferenceable(32) %token, ptr noundef nonnull align 1 dereferenceable(3) @.str.13) #22
          to label %invoke.cont8 unwind label %lpad

invoke.cont8:                                     ; preds = %if.then7
  unreachable

if.end9:                                          ; preds = %invoke.cont3
  %1 = load float, ptr %result, align 4
  call void @_ZNSt7__cxx1112basic_stringIcSt11char_traitsIcESaIcEED1Ev(ptr noundef nonnull align 8 dereferenceable(32) %token) #20
  ret float %1
}